target datalayout = "e-m:e-p270:32:32-p271:32:32-p272:64:64-i64:64-i128:128-f80:128-n8:16:32:64-S128"
target triple = "x86_64-pc-linux-gnu"

%struct.Int128_ = type { i64, i64 }

; Function Attrs: nounwind uwtable
define dso_local { i64, i64 } @i128_add64(i64 %0, i64 %1, i64 noundef %2) #0 {
  %4 = alloca %struct.Int128_, align 8
  %5 = alloca %struct.Int128_, align 8
  %6 = alloca i64, align 8
  %7 = alloca i64, align 8
  %8 = getelementptr inbounds { i64, i64 }, ptr %5, i32 0, i32 0
  store i64 %0, ptr %8, align 8
  %9 = getelementptr inbounds { i64, i64 }, ptr %5, i32 0, i32 1
  store i64 %1, ptr %9, align 8
  store i64 %2, ptr %6, align 8
  %10 = getelementptr inbounds %struct.Int128_, ptr %5, i32 0, i32 1
  %11 = load i64, ptr %10, align 8
  %12 = load i64, ptr %6, align 8
  %13 = add i64 %11, %12
  store i64 %13, ptr %7, align 8
  %14 = getelementptr inbounds %struct.Int128_, ptr %4, i32 0, i32 0
  %15 = load i64, ptr %7, align 8
  %16 = getelementptr inbounds %struct.Int128_, ptr %5, i32 0, i32 1
  %17 = load i64, ptr %16, align 8
  %18 = icmp ult i64 %15, %17
  br i1 %18, label %19, label %23

19:                                               ; preds = %3
  %20 = getelementptr inbounds %struct.Int128_, ptr %5, i32 0, i32 0
  %21 = load i64, ptr %20, align 8
  %22 = add i64 %21, 1
  br label %26

23:                                               ; preds = %3
  %24 = getelementptr inbounds %struct.Int128_, ptr %5, i32 0, i32 0
  %25 = load i64, ptr %24, align 8
  br label %26

26:                                               ; preds = %23, %19
  %27 = phi i64 [ %22, %19 ], [ %25, %23 ]
  store i64 %27, ptr %14, align 8
  %28 = getelementptr inbounds %struct.Int128_, ptr %4, i32 0, i32 1
  %29 = load i64, ptr %7, align 8
  store i64 %29, ptr %28, align 8
  %30 = load { i64, i64 }, ptr %4, align 8
  ret { i64, i64 } %30
}

; Function Attrs: nounwind uwtable
define dso_local { i64, i64 } @i128_not(i64 %0, i64 %1) #0 {
  %3 = alloca %struct.Int128_, align 8
  %4 = alloca %struct.Int128_, align 8
  %5 = getelementptr inbounds { i64, i64 }, ptr %4, i32 0, i32 0
  store i64 %0, ptr %5, align 8
  %6 = getelementptr inbounds { i64, i64 }, ptr %4, i32 0, i32 1
  store i64 %1, ptr %6, align 8
  %7 = getelementptr inbounds %struct.Int128_, ptr %3, i32 0, i32 0
  %8 = getelementptr inbounds %struct.Int128_, ptr %4, i32 0, i32 0
  %9 = load i64, ptr %8, align 8
  %10 = xor i64 %9, -1
  store i64 %10, ptr %7, align 8
  %11 = getelementptr inbounds %struct.Int128_, ptr %3, i32 0, i32 1
  %12 = getelementptr inbounds %struct.Int128_, ptr %4, i32 0, i32 1
  %13 = load i64, ptr %12, align 8
  %14 = xor i64 %13, -1
  store i64 %14, ptr %11, align 8
  %15 = load { i64, i64 }, ptr %3, align 8
  ret { i64, i64 } %15
}

; Function Attrs: nounwind uwtable
define dso_local { i64, i64 } @i128_neg(i64 %0, i64 %1) #0 {
  %3 = alloca %struct.Int128_, align 8
  %4 = alloca %struct.Int128_, align 8
  %5 = alloca %struct.Int128_, align 8
  %6 = getelementptr inbounds { i64, i64 }, ptr %4, i32 0, i32 0
  store i64 %0, ptr %6, align 8
  %7 = getelementptr inbounds { i64, i64 }, ptr %4, i32 0, i32 1
  store i64 %1, ptr %7, align 8
  %8 = getelementptr inbounds %struct.Int128_, ptr %4, i32 0, i32 1
  %9 = load i64, ptr %8, align 8
  %10 = icmp ne i64 %9, 0
  br i1 %10, label %16, label %11

11:                                               ; preds = %2
  %12 = getelementptr inbounds %struct.Int128_, ptr %4, i32 0, i32 1
  %13 = load i64, ptr %12, align 8
  %14 = icmp ne i64 %13, 0
  br i1 %14, label %16, label %15

15:                                               ; preds = %11
  call void @llvm.memcpy.p0.p0.i64(ptr align 8 %3, ptr align 8 %4, i64 16, i1 false)
  br label %35

16:                                               ; preds = %11, %2
  %17 = getelementptr inbounds { i64, i64 }, ptr %4, i32 0, i32 0
  %18 = load i64, ptr %17, align 8
  %19 = getelementptr inbounds { i64, i64 }, ptr %4, i32 0, i32 1
  %20 = load i64, ptr %19, align 8
  %21 = call { i64, i64 } @i128_not(i64 %18, i64 %20)
  %22 = getelementptr inbounds { i64, i64 }, ptr %5, i32 0, i32 0
  %23 = extractvalue { i64, i64 } %21, 0
  store i64 %23, ptr %22, align 8
  %24 = getelementptr inbounds { i64, i64 }, ptr %5, i32 0, i32 1
  %25 = extractvalue { i64, i64 } %21, 1
  store i64 %25, ptr %24, align 8
  %26 = getelementptr inbounds { i64, i64 }, ptr %5, i32 0, i32 0
  %27 = load i64, ptr %26, align 8
  %28 = getelementptr inbounds { i64, i64 }, ptr %5, i32 0, i32 1
  %29 = load i64, ptr %28, align 8
  %30 = call { i64, i64 } @i128_add64(i64 %27, i64 %29, i64 noundef 1)
  %31 = getelementptr inbounds { i64, i64 }, ptr %3, i32 0, i32 0
  %32 = extractvalue { i64, i64 } %30, 0
  store i64 %32, ptr %31, align 8
  %33 = getelementptr inbounds { i64, i64 }, ptr %3, i32 0, i32 1
  %34 = extractvalue { i64, i64 } %30, 1
  store i64 %34, ptr %33, align 8
  br label %35

35:                                               ; preds = %16, %15
  %36 = load { i64, i64 }, ptr %3, align 8
  ret { i64, i64 } %36
}

; Function Attrs: nounwind uwtable
define dso_local double @i128_to_float_signed(i64 %0, i64 %1) #0 {
  %3 = alloca double, align 8
  %4 = alloca %struct.Int128_, align 8
  %5 = alloca %struct.Int128_, align 8
  %6 = alloca %struct.Int128_, align 8
  %7 = alloca %struct.Int128_, align 8
  %8 = getelementptr inbounds { i64, i64 }, ptr %4, i32 0, i32 0
  store i64 %0, ptr %8, align 8
  %9 = getelementptr inbounds { i64, i64 }, ptr %4, i32 0, i32 1
  store i64 %1, ptr %9, align 8
  %10 = getelementptr inbounds %struct.Int128_, ptr %4, i32 0, i32 0
  %11 = load i64, ptr %10, align 8
  %12 = icmp slt i64 %11, 0
  br i1 %12, label %13, label %41

13:                                               ; preds = %2
  %14 = getelementptr inbounds %struct.Int128_, ptr %4, i32 0, i32 0
  %15 = load i64, ptr %14, align 8
  %16 = getelementptr inbounds %struct.Int128_, ptr %5, i32 0, i32 0
  store i64 -9223372036854775808, ptr %16, align 8
  %17 = getelementptr inbounds %struct.Int128_, ptr %5, i32 0, i32 1
  store i64 0, ptr %17, align 8
  %18 = icmp ne i64 %15, -9223372036854775808
  br i1 %18, label %25, label %19

19:                                               ; preds = %13
  %20 = getelementptr inbounds %struct.Int128_, ptr %4, i32 0, i32 1
  %21 = load i64, ptr %20, align 8
  %22 = getelementptr inbounds %struct.Int128_, ptr %6, i32 0, i32 0
  store i64 -9223372036854775808, ptr %22, align 8
  %23 = getelementptr inbounds %struct.Int128_, ptr %6, i32 0, i32 1
  store i64 0, ptr %23, align 8
  %24 = icmp ne i64 %21, 0
  br i1 %24, label %25, label %41

25:                                               ; preds = %19, %13
  %26 = getelementptr inbounds { i64, i64 }, ptr %4, i32 0, i32 0
  %27 = load i64, ptr %26, align 8
  %28 = getelementptr inbounds { i64, i64 }, ptr %4, i32 0, i32 1
  %29 = load i64, ptr %28, align 8
  %30 = call { i64, i64 } @i128_neg(i64 %27, i64 %29)
  %31 = getelementptr inbounds { i64, i64 }, ptr %7, i32 0, i32 0
  %32 = extractvalue { i64, i64 } %30, 0
  store i64 %32, ptr %31, align 8
  %33 = getelementptr inbounds { i64, i64 }, ptr %7, i32 0, i32 1
  %34 = extractvalue { i64, i64 } %30, 1
  store i64 %34, ptr %33, align 8
  %35 = getelementptr inbounds { i64, i64 }, ptr %7, i32 0, i32 0
  %36 = load i64, ptr %35, align 8
  %37 = getelementptr inbounds { i64, i64 }, ptr %7, i32 0, i32 1
  %38 = load i64, ptr %37, align 8
  %39 = call double @i128_to_float_signed(i64 %36, i64 %38)
  %40 = fneg double %39
  store double %40, ptr %3, align 8
  br label %50

41:                                               ; preds = %19, %2
  %42 = getelementptr inbounds %struct.Int128_, ptr %4, i32 0, i32 1
  %43 = load i64, ptr %42, align 8
  %44 = uitofp i64 %43 to double
  %45 = getelementptr inbounds %struct.Int128_, ptr %4, i32 0, i32 0
  %46 = load i64, ptr %45, align 8
  %47 = uitofp i64 %46 to double
  %48 = call double @ldexp(double noundef %47, i32 noundef 64) #7
  %49 = fadd double %44, %48
  store double %49, ptr %3, align 8
  br label %50

50:                                               ; preds = %41, %25
  %51 = load double, ptr %3, align 8
  ret double %51
}