; Function Attrs: nofree nounwind uwtable
define dso_local double @i128_to_float_signed(i64 %0, i64 %1) local_unnamed_addr #12 {
  %3 = icmp slt i64 %0, 0
  br i1 %3, label %4, label %common.ret

4:                                                ; preds = %2
  %.not = icmp eq i64 %0, -9223372036854775808
  %.not13 = icmp eq i64 %1, 0
  br i1 %.not, label %12, label %.split

.split:                                           ; preds = %4
  br i1 %.not13, label %i128_neg.exit, label %5

5:                                                ; preds = %.split
  %6 = xor i64 %0, -1
  %7 = xor i64 %1, -1
  %8 = sub i64 0, %1
  %9 = icmp ult i64 %8, %7
  %10 = zext i1 %9 to i64
  %11 = add nuw nsw i64 %10, %6
  br label %i128_neg.exit

12:                                               ; preds = %4
  br i1 %.not13, label %common.ret, label %i128_neg.exit19

i128_neg.exit19:                                  ; preds = %12
  %13 = xor i64 %1, -1
  %14 = sub i64 0, %1
  %15 = icmp ult i64 %14, %13
  %16 = select i1 %15, i64 -9223372036854775808, i64 9223372036854775807
  br label %i128_neg.exit

common.ret20:                                     ; preds = %i128_neg.exit, %common.ret
  %common.ret20.op = phi double [ %22, %common.ret ], [ %18, %i128_neg.exit ]
  ret double %common.ret20.op

i128_neg.exit:                                    ; preds = %5, %.split, %i128_neg.exit19
  %.pn11.i.pn = phi i64 [ %16, %i128_neg.exit19 ], [ %11, %5 ], [ %0, %.split ]
  %.pn.i.pn = phi i64 [ %14, %i128_neg.exit19 ], [ %8, %5 ], [ 0, %.split ]
  %17 = tail call double @i128_to_float_signed(i64 %.pn11.i.pn, i64 %.pn.i.pn)
  %18 = fneg double %17
  br label %common.ret20

common.ret:                                       ; preds = %12, %2
  %19 = uitofp i64 %1 to double
  %20 = uitofp i64 %0 to double
  %21 = tail call double @ldexp(double noundef %20, i32 noundef 64) #19
  %22 = fadd double %21, %19
  br label %common.ret20
}